; Function Attrs: mustprogress nofree norecurse nounwind willreturn uwtable
define hidden void @_ZTv0_n56_NK5osgeo4proj9operation26InverseCoordinateOperation7inverseEv(ptr dead_on_unwind noalias writable writeonly sret(%"class.dropbox::oxygen::nn.49") align 8 captures(none) initializes((0, 16)) %0, ptr noundef readonly captures(none) %1) unnamed_addr #33 align 2 personality ptr @__gxx_personality_v0 {
  %3 = load ptr, ptr %1, align 8, !tbaa !3
  %4 = getelementptr inbounds i8, ptr %3, i64 -56
  %5 = load i64, ptr %4, align 8
  %6 = getelementptr inbounds i8, ptr %1, i64 %5
  tail call void @llvm.experimental.noalias.scope.decl(metadata !1008)
  %7 = getelementptr inbounds nuw i8, ptr %6, i64 8
  %8 = load ptr, ptr %7, align 8, !tbaa !65, !noalias !1008
  store ptr %8, ptr %0, align 8, !tbaa !65, !alias.scope !1008
  %9 = getelementptr inbounds nuw i8, ptr %0, i64 8
  %10 = getelementptr inbounds nuw i8, ptr %6, i64 16
  %11 = load ptr, ptr %10, align 8, !tbaa !38, !noalias !1008
  store ptr %11, ptr %9, align 8, !tbaa !38, !alias.scope !1008
  %.not.i.i.i.i.i = icmp eq ptr %11, null
  br i1 %.not.i.i.i.i.i, label %_ZNK5osgeo4proj9operation26InverseCoordinateOperation7inverseEv.exit, label %12

12:                                               ; preds = %2
  %13 = getelementptr inbounds nuw i8, ptr %11, i64 8
  %14 = load i8, ptr @__libc_single_threaded, align 1, !tbaa !14, !noalias !1008
  %.not.i.i.i.i.i.i = icmp eq i8 %14, 0
  br i1 %.not.i.i.i.i.i.i, label %18, label %15

15:                                               ; preds = %12
  %16 = load i32, ptr %13, align 4, !tbaa !54, !noalias !1008
  %17 = add nsw i32 %16, 1
  store i32 %17, ptr %13, align 4, !tbaa !54, !noalias !1008
  br label %_ZNK5osgeo4proj9operation26InverseCoordinateOperation7inverseEv.exit

18:                                               ; preds = %12
  %19 = atomicrmw volatile add ptr %13, i32 1 acq_rel, align 4, !noalias !1008
  br label %_ZNK5osgeo4proj9operation26InverseCoordinateOperation7inverseEv.exit

_ZNK5osgeo4proj9operation26InverseCoordinateOperation7inverseEv.exit: ; preds = %2, %15, %18
  ret void
}